; Function Attrs: mustprogress nounwind uwtable
define void @_ZN2cv4gapi3wip3gst15GStreamerSourceD2Ev(ptr noundef nonnull align 8 captures(none) dereferenceable(32) initializes((0, 8)) %0) unnamed_addr #6 align 2 personality ptr @__gxx_personality_v0 {
  store ptr getelementptr inbounds nuw inrange(-16, 40) (i8, ptr @_ZTVN2cv4gapi3wip3gst15GStreamerSourceE, i64 16), ptr %0, align 8, !tbaa !3
  %2 = getelementptr inbounds nuw i8, ptr %0, i64 24
  %3 = load ptr, ptr %2, align 8, !tbaa !145
  %.not.i = icmp eq ptr %3, null
  br i1 %.not.i, label %_ZNSt10unique_ptrIN2cv4gapi3wip3gst15GStreamerSource4PrivESt14default_deleteIS5_EED2Ev.exit, label %_ZNKSt14default_deleteIN2cv4gapi3wip3gst15GStreamerSource4PrivEEclEPS5_.exit.i

_ZNKSt14default_deleteIN2cv4gapi3wip3gst15GStreamerSource4PrivEEclEPS5_.exit.i: ; preds = %1
  %4 = load ptr, ptr %3, align 8, !tbaa !3
  %5 = getelementptr inbounds nuw i8, ptr %4, i64 8
  %6 = load ptr, ptr %5, align 8
  tail call void %6(ptr noundef nonnull align 8 dereferenceable(304) %3) #26
  br label %_ZNSt10unique_ptrIN2cv4gapi3wip3gst15GStreamerSource4PrivESt14default_deleteIS5_EED2Ev.exit

_ZNSt10unique_ptrIN2cv4gapi3wip3gst15GStreamerSource4PrivESt14default_deleteIS5_EED2Ev.exit: ; preds = %1, %_ZNKSt14default_deleteIN2cv4gapi3wip3gst15GStreamerSource4PrivEEclEPS5_.exit.i
  store ptr null, ptr %2, align 8, !tbaa !145
  %7 = getelementptr inbounds nuw i8, ptr %0, i64 16
  %8 = load ptr, ptr %7, align 8, !tbaa !150
  %.not.i.i.i.i = icmp eq ptr %8, null
  br i1 %.not.i.i.i.i, label %_ZN2cv4gapi3wip13IStreamSourceD2Ev.exit, label %9

9:                                                ; preds = %_ZNSt10unique_ptrIN2cv4gapi3wip3gst15GStreamerSource4PrivESt14default_deleteIS5_EED2Ev.exit
  %10 = getelementptr inbounds nuw i8, ptr %8, i64 12
  %11 = load i8, ptr @__libc_single_threaded, align 1, !tbaa !78
  %.not.i.i.i.i.i = icmp eq i8 %11, 0
  br i1 %.not.i.i.i.i.i, label %15, label %12

12:                                               ; preds = %9
  %13 = load i32, ptr %10, align 4, !tbaa !88
  %14 = add nsw i32 %13, -1
  store i32 %14, ptr %10, align 4, !tbaa !88
  br label %_ZN9__gnu_cxx27__exchange_and_add_dispatchEPii.exit.i.i.i.i.i

15:                                               ; preds = %9
  %16 = atomicrmw volatile add ptr %10, i32 -1 acq_rel, align 4
  br label %_ZN9__gnu_cxx27__exchange_and_add_dispatchEPii.exit.i.i.i.i.i

_ZN9__gnu_cxx27__exchange_and_add_dispatchEPii.exit.i.i.i.i.i: ; preds = %15, %12
  %.0.i.i.i.i.i.i = phi i32 [ %13, %12 ], [ %16, %15 ]
  %17 = icmp eq i32 %.0.i.i.i.i.i.i, 1
  br i1 %17, label %18, label %_ZN2cv4gapi3wip13IStreamSourceD2Ev.exit

18:                                               ; preds = %_ZN9__gnu_cxx27__exchange_and_add_dispatchEPii.exit.i.i.i.i.i
  %19 = load ptr, ptr %8, align 8, !tbaa !3
  %20 = getelementptr inbounds nuw i8, ptr %19, i64 24
  %21 = load ptr, ptr %20, align 8
  tail call void %21(ptr noundef nonnull align 8 dereferenceable(16) %8) #26
  br label %_ZN2cv4gapi3wip13IStreamSourceD2Ev.exit

_ZN2cv4gapi3wip13IStreamSourceD2Ev.exit:          ; preds = %_ZNSt10unique_ptrIN2cv4gapi3wip3gst15GStreamerSource4PrivESt14default_deleteIS5_EED2Ev.exit, %_ZN9__gnu_cxx27__exchange_and_add_dispatchEPii.exit.i.i.i.i.i, %18
  ret void
}